target datalayout = "e-m:e-p270:32:32-p271:32:32-p272:64:64-i64:64-i128:128-f80:128-n8:16:32:64-S128"
target triple = "x86_64-pc-linux-gnu"

%struct.strbuf = type { i64, i64, ptr }
%struct.json_writer = type { %struct.strbuf, %struct.strbuf, i8 }

@strbuf_slopbuf = external global [0 x i8], align 1
@__const.append_sub_jw.sb = private unnamed_addr constant %struct.strbuf { i64 0, i64 0, ptr @strbuf_slopbuf }, align 8
@__const.append_sub_jw.sb.19 = private unnamed_addr constant %struct.strbuf { i64 0, i64 0, ptr @strbuf_slopbuf }, align 8
@.str.22 = private unnamed_addr constant [11 x i8] c"./strbuf.h\00", align 1
@.str.23 = private unnamed_addr constant [30 x i8] c"strbuf_setlen() beyond buffer\00", align 1

; Function Attrs: inlinehint nounwind uwtable
define internal i64 @strbuf_avail(ptr noundef %0) #4 {
  %2 = alloca ptr, align 8
  store ptr %0, ptr %2, align 8, !tbaa !14
  %3 = load ptr, ptr %2, align 8, !tbaa !14
  %4 = getelementptr inbounds nuw %struct.strbuf, ptr %3, i32 0, i32 0
  %5 = load i64, ptr %4, align 8, !tbaa !32
  %6 = icmp ne i64 %5, 0
  br i1 %6, label %7, label %16

7:                                                ; preds = %1
  %8 = load ptr, ptr %2, align 8, !tbaa !14
  %9 = getelementptr inbounds nuw %struct.strbuf, ptr %8, i32 0, i32 0
  %10 = load i64, ptr %9, align 8, !tbaa !32
  %11 = load ptr, ptr %2, align 8, !tbaa !14
  %12 = getelementptr inbounds nuw %struct.strbuf, ptr %11, i32 0, i32 1
  %13 = load i64, ptr %12, align 8, !tbaa !33
  %14 = sub i64 %10, %13
  %15 = sub i64 %14, 1
  br label %17

16:                                               ; preds = %1
  br label %17

17:                                               ; preds = %16, %7
  %18 = phi i64 [ %15, %7 ], [ 0, %16 ]
  ret i64 %18
}

; Function Attrs: inlinehint nounwind uwtable
define internal void @strbuf_addch(ptr noundef %0, i32 noundef %1) #4 {
  %3 = alloca ptr, align 8
  %4 = alloca i32, align 4
  store ptr %0, ptr %3, align 8, !tbaa !14
  store i32 %1, ptr %4, align 4, !tbaa !9
  %5 = load ptr, ptr %3, align 8, !tbaa !14
  %6 = call i64 @strbuf_avail(ptr noundef %5)
  %7 = icmp ne i64 %6, 0
  br i1 %7, label %10, label %8

8:                                                ; preds = %2
  %9 = load ptr, ptr %3, align 8, !tbaa !14
  call void @strbuf_grow(ptr noundef %9, i64 noundef 1)
  br label %10

10:                                               ; preds = %8, %2
  %11 = load i32, ptr %4, align 4, !tbaa !9
  %12 = trunc i32 %11 to i8
  %13 = load ptr, ptr %3, align 8, !tbaa !14
  %14 = getelementptr inbounds nuw %struct.strbuf, ptr %13, i32 0, i32 2
  %15 = load ptr, ptr %14, align 8, !tbaa !22
  %16 = load ptr, ptr %3, align 8, !tbaa !14
  %17 = getelementptr inbounds nuw %struct.strbuf, ptr %16, i32 0, i32 1
  %18 = load i64, ptr %17, align 8, !tbaa !33
  %19 = add i64 %18, 1
  store i64 %19, ptr %17, align 8, !tbaa !33
  %20 = getelementptr inbounds nuw i8, ptr %15, i64 %18
  store i8 %12, ptr %20, align 1, !tbaa !11
  %21 = load ptr, ptr %3, align 8, !tbaa !14
  %22 = getelementptr inbounds nuw %struct.strbuf, ptr %21, i32 0, i32 2
  %23 = load ptr, ptr %22, align 8, !tbaa !22
  %24 = load ptr, ptr %3, align 8, !tbaa !14
  %25 = getelementptr inbounds nuw %struct.strbuf, ptr %24, i32 0, i32 1
  %26 = load i64, ptr %25, align 8, !tbaa !33
  %27 = getelementptr inbounds nuw i8, ptr %23, i64 %26
  store i8 0, ptr %27, align 1, !tbaa !11
  ret void
}

; Function Attrs: inlinehint nounwind uwtable
define internal void @strbuf_setlen(ptr noundef %0, i64 noundef %1) #4 {
  %3 = alloca ptr, align 8
  %4 = alloca i64, align 8
  store ptr %0, ptr %3, align 8, !tbaa !14
  store i64 %1, ptr %4, align 8, !tbaa !18
  %5 = load i64, ptr %4, align 8, !tbaa !18
  %6 = load ptr, ptr %3, align 8, !tbaa !14
  %7 = getelementptr inbounds nuw %struct.strbuf, ptr %6, i32 0, i32 0
  %8 = load i64, ptr %7, align 8, !tbaa !32
  %9 = icmp ne i64 %8, 0
  br i1 %9, label %10, label %15

10:                                               ; preds = %2
  %11 = load ptr, ptr %3, align 8, !tbaa !14
  %12 = getelementptr inbounds nuw %struct.strbuf, ptr %11, i32 0, i32 0
  %13 = load i64, ptr %12, align 8, !tbaa !32
  %14 = sub i64 %13, 1
  br label %16

15:                                               ; preds = %2
  br label %16

16:                                               ; preds = %15, %10
  %17 = phi i64 [ %14, %10 ], [ 0, %15 ]
  %18 = icmp ugt i64 %5, %17
  br i1 %18, label %19, label %20

19:                                               ; preds = %16
  call void (ptr, i32, ptr, ...) @BUG_fl(ptr noundef @.str.22, i32 noundef 167, ptr noundef @.str.23) #9
  unreachable

20:                                               ; preds = %16
  %21 = load i64, ptr %4, align 8, !tbaa !18
  %22 = load ptr, ptr %3, align 8, !tbaa !14
  %23 = getelementptr inbounds nuw %struct.strbuf, ptr %22, i32 0, i32 1
  store i64 %21, ptr %23, align 8, !tbaa !33
  %24 = load ptr, ptr %3, align 8, !tbaa !14
  %25 = getelementptr inbounds nuw %struct.strbuf, ptr %24, i32 0, i32 2
  %26 = load ptr, ptr %25, align 8, !tbaa !22
  %27 = icmp ne ptr %26, @strbuf_slopbuf
  br i1 %27, label %28, label %34

28:                                               ; preds = %20
  %29 = load ptr, ptr %3, align 8, !tbaa !14
  %30 = getelementptr inbounds nuw %struct.strbuf, ptr %29, i32 0, i32 2
  %31 = load ptr, ptr %30, align 8, !tbaa !22
  %32 = load i64, ptr %4, align 8, !tbaa !18
  %33 = getelementptr inbounds nuw i8, ptr %31, i64 %32
  store i8 0, ptr %33, align 1, !tbaa !11
  br label %35

34:                                               ; preds = %20
  br label %35

35:                                               ; preds = %34, %28
  ret void
}

; Function Attrs: nounwind uwtable
define internal void @kill_indent(ptr noundef %0, ptr noundef %1) #0 {
  %3 = alloca ptr, align 8
  %4 = alloca ptr, align 8
  %5 = alloca i32, align 4
  %6 = alloca i32, align 4
  %7 = alloca i8, align 1
  %8 = alloca i32, align 4
  store ptr %0, ptr %3, align 8, !tbaa !14
  store ptr %1, ptr %4, align 8, !tbaa !4
  call void @llvm.lifetime.start.p0(i64 4, ptr %5) #7
  call void @llvm.lifetime.start.p0(i64 4, ptr %6) #7
  store i32 0, ptr %6, align 4, !tbaa !9
  %9 = load ptr, ptr %3, align 8, !tbaa !14
  call void @strbuf_setlen(ptr noundef %9, i64 noundef 0)
  store i32 0, ptr %5, align 4, !tbaa !9
  br label %10

10:                                               ; preds = %46, %2
  %11 = load i32, ptr %5, align 4, !tbaa !9
  %12 = sext i32 %11 to i64
  %13 = load ptr, ptr %4, align 8, !tbaa !4
  %14 = getelementptr inbounds nuw %struct.json_writer, ptr %13, i32 0, i32 0
  %15 = getelementptr inbounds nuw %struct.strbuf, ptr %14, i32 0, i32 1
  %16 = load i64, ptr %15, align 8, !tbaa !34
  %17 = icmp ult i64 %12, %16
  br i1 %17, label %18, label %49

18:                                               ; preds = %10
  call void @llvm.lifetime.start.p0(i64 1, ptr %7) #7
  %19 = load ptr, ptr %4, align 8, !tbaa !4
  %20 = getelementptr inbounds nuw %struct.json_writer, ptr %19, i32 0, i32 0
  %21 = getelementptr inbounds nuw %struct.strbuf, ptr %20, i32 0, i32 2
  %22 = load ptr, ptr %21, align 8, !tbaa !26
  %23 = load i32, ptr %5, align 4, !tbaa !9
  %24 = sext i32 %23 to i64
  %25 = getelementptr inbounds i8, ptr %22, i64 %24
  %26 = load i8, ptr %25, align 1, !tbaa !11
  store i8 %26, ptr %7, align 1, !tbaa !11
  %27 = load i32, ptr %6, align 4, !tbaa !9
  %28 = icmp ne i32 %27, 0
  br i1 %28, label %29, label %34

29:                                               ; preds = %18
  %30 = load i8, ptr %7, align 1, !tbaa !11
  %31 = sext i8 %30 to i32
  %32 = icmp eq i32 %31, 32
  br i1 %32, label %33, label %34

33:                                               ; preds = %29
  store i32 4, ptr %8, align 4
  br label %43

34:                                               ; preds = %29, %18
  %35 = load i8, ptr %7, align 1, !tbaa !11
  %36 = sext i8 %35 to i32
  %37 = icmp eq i32 %36, 10
  br i1 %37, label %38, label %39

38:                                               ; preds = %34
  store i32 1, ptr %6, align 4, !tbaa !9
  store i32 4, ptr %8, align 4
  br label %43

39:                                               ; preds = %34
  store i32 0, ptr %6, align 4, !tbaa !9
  %40 = load ptr, ptr %3, align 8, !tbaa !14
  %41 = load i8, ptr %7, align 1, !tbaa !11
  %42 = sext i8 %41 to i32
  call void @strbuf_addch(ptr noundef %40, i32 noundef %42)
  store i32 0, ptr %8, align 4
  br label %43

43:                                               ; preds = %39, %38, %33
  call void @llvm.lifetime.end.p0(i64 1, ptr %7) #7
  %44 = load i32, ptr %8, align 4
  switch i32 %44, label %50 [
    i32 0, label %45
    i32 4, label %46
  ]

45:                                               ; preds = %43
  br label %46

46:                                               ; preds = %45, %43
  %47 = load i32, ptr %5, align 4, !tbaa !9
  %48 = add nsw i32 %47, 1
  store i32 %48, ptr %5, align 4, !tbaa !9
  br label %10, !llvm.loop !36

49:                                               ; preds = %10
  call void @llvm.lifetime.end.p0(i64 4, ptr %6) #7
  call void @llvm.lifetime.end.p0(i64 4, ptr %5) #7
  ret void

50:                                               ; preds = %43
  unreachable
}

; Function Attrs: nounwind uwtable
define internal void @increase_indent(ptr noundef %0, ptr noundef %1, i32 noundef %2) #0 {
  %4 = alloca ptr, align 8
  %5 = alloca ptr, align 8
  %6 = alloca i32, align 4
  %7 = alloca i32, align 4
  %8 = alloca i8, align 1
  store ptr %0, ptr %4, align 8, !tbaa !14
  store ptr %1, ptr %5, align 8, !tbaa !4
  store i32 %2, ptr %6, align 4, !tbaa !9
  call void @llvm.lifetime.start.p0(i64 4, ptr %7) #7
  %9 = load ptr, ptr %4, align 8, !tbaa !14
  call void @strbuf_setlen(ptr noundef %9, i64 noundef 0)
  store i32 0, ptr %7, align 4, !tbaa !9
  br label %10

10:                                               ; preds = %38, %3
  %11 = load i32, ptr %7, align 4, !tbaa !9
  %12 = sext i32 %11 to i64
  %13 = load ptr, ptr %5, align 8, !tbaa !4
  %14 = getelementptr inbounds nuw %struct.json_writer, ptr %13, i32 0, i32 0
  %15 = getelementptr inbounds nuw %struct.strbuf, ptr %14, i32 0, i32 1
  %16 = load i64, ptr %15, align 8, !tbaa !34
  %17 = icmp ult i64 %12, %16
  br i1 %17, label %18, label %41

18:                                               ; preds = %10
  call void @llvm.lifetime.start.p0(i64 1, ptr %8) #7
  %19 = load ptr, ptr %5, align 8, !tbaa !4
  %20 = getelementptr inbounds nuw %struct.json_writer, ptr %19, i32 0, i32 0
  %21 = getelementptr inbounds nuw %struct.strbuf, ptr %20, i32 0, i32 2
  %22 = load ptr, ptr %21, align 8, !tbaa !26
  %23 = load i32, ptr %7, align 4, !tbaa !9
  %24 = sext i32 %23 to i64
  %25 = getelementptr inbounds i8, ptr %22, i64 %24
  %26 = load i8, ptr %25, align 1, !tbaa !11
  store i8 %26, ptr %8, align 1, !tbaa !11
  %27 = load ptr, ptr %4, align 8, !tbaa !14
  %28 = load i8, ptr %8, align 1, !tbaa !11
  %29 = sext i8 %28 to i32
  call void @strbuf_addch(ptr noundef %27, i32 noundef %29)
  %30 = load i8, ptr %8, align 1, !tbaa !11
  %31 = sext i8 %30 to i32
  %32 = icmp eq i32 %31, 10
  br i1 %32, label %33, label %37

33:                                               ; preds = %18
  %34 = load ptr, ptr %4, align 8, !tbaa !14
  %35 = load i32, ptr %6, align 4, !tbaa !9
  %36 = sext i32 %35 to i64
  call void @strbuf_addchars(ptr noundef %34, i32 noundef 32, i64 noundef %36)
  br label %37

37:                                               ; preds = %33, %18
  call void @llvm.lifetime.end.p0(i64 1, ptr %8) #7
  br label %38

38:                                               ; preds = %37
  %39 = load i32, ptr %7, align 4, !tbaa !9
  %40 = add nsw i32 %39, 1
  store i32 %40, ptr %7, align 4, !tbaa !9
  br label %10, !llvm.loop !35

41:                                               ; preds = %10
  call void @llvm.lifetime.end.p0(i64 4, ptr %7) #7
  ret void
}

; Function Attrs: nounwind uwtable
define internal void @append_sub_jw(ptr noundef %0, ptr noundef %1) #0 {
  %3 = alloca ptr, align 8
  %4 = alloca ptr, align 8
  %5 = alloca %struct.strbuf, align 8
  %6 = alloca %struct.strbuf, align 8
  store ptr %0, ptr %3, align 8, !tbaa !4
  store ptr %1, ptr %4, align 8, !tbaa !4
  %7 = load ptr, ptr %3, align 8, !tbaa !4
  %8 = getelementptr inbounds nuw %struct.json_writer, ptr %7, i32 0, i32 2
  %9 = load i8, ptr %8, align 8
  %10 = lshr i8 %9, 1
  %11 = and i8 %10, 1
  %12 = zext i8 %11 to i32
  %13 = icmp ne i32 %12, 0
  br i1 %13, label %14, label %38

14:                                               ; preds = %2
  %15 = load ptr, ptr %3, align 8, !tbaa !4
  %16 = getelementptr inbounds nuw %struct.json_writer, ptr %15, i32 0, i32 1
  %17 = getelementptr inbounds nuw %struct.strbuf, ptr %16, i32 0, i32 1
  %18 = load i64, ptr %17, align 8, !tbaa !24
  %19 = icmp ne i64 %18, 0
  br i1 %19, label %20, label %38

20:                                               ; preds = %14
  %21 = load ptr, ptr %4, align 8, !tbaa !4
  %22 = getelementptr inbounds nuw %struct.json_writer, ptr %21, i32 0, i32 2
  %23 = load i8, ptr %22, align 8
  %24 = lshr i8 %23, 1
  %25 = and i8 %24, 1
  %26 = zext i8 %25 to i32
  %27 = icmp ne i32 %26, 0
  br i1 %27, label %28, label %38

28:                                               ; preds = %20
  call void @llvm.lifetime.start.p0(i64 24, ptr %5) #7
  call void @llvm.memcpy.p0.p0.i64(ptr align 8 %5, ptr align 8 @__const.append_sub_jw.sb, i64 24, i1 false)
  %29 = load ptr, ptr %4, align 8, !tbaa !4
  %30 = load ptr, ptr %3, align 8, !tbaa !4
  %31 = getelementptr inbounds nuw %struct.json_writer, ptr %30, i32 0, i32 1
  %32 = getelementptr inbounds nuw %struct.strbuf, ptr %31, i32 0, i32 1
  %33 = load i64, ptr %32, align 8, !tbaa !24
  %34 = mul i64 %33, 2
  %35 = trunc i64 %34 to i32
  call void @increase_indent(ptr noundef %5, ptr noundef %29, i32 noundef %35)
  %36 = load ptr, ptr %3, align 8, !tbaa !4
  %37 = getelementptr inbounds nuw %struct.json_writer, ptr %36, i32 0, i32 0
  call void @strbuf_addbuf(ptr noundef %37, ptr noundef %5)
  call void @strbuf_release(ptr noundef %5)
  call void @llvm.lifetime.end.p0(i64 24, ptr %5) #7
  br label %63

38:                                               ; preds = %20, %14, %2
  %39 = load ptr, ptr %3, align 8, !tbaa !4
  %40 = getelementptr inbounds nuw %struct.json_writer, ptr %39, i32 0, i32 2
  %41 = load i8, ptr %40, align 8
  %42 = lshr i8 %41, 1
  %43 = and i8 %42, 1
  %44 = zext i8 %43 to i32
  %45 = icmp ne i32 %44, 0
  br i1 %45, label %58, label %46

46:                                               ; preds = %38
  %47 = load ptr, ptr %4, align 8, !tbaa !4
  %48 = getelementptr inbounds nuw %struct.json_writer, ptr %47, i32 0, i32 2
  %49 = load i8, ptr %48, align 8
  %50 = lshr i8 %49, 1
  %51 = and i8 %50, 1
  %52 = zext i8 %51 to i32
  %53 = icmp ne i32 %52, 0
  br i1 %53, label %54, label %58

54:                                               ; preds = %46
  call void @llvm.lifetime.start.p0(i64 24, ptr %6) #7
  call void @llvm.memcpy.p0.p0.i64(ptr align 8 %6, ptr align 8 @__const.append_sub_jw.sb.19, i64 24, i1 false)
  %55 = load ptr, ptr %4, align 8, !tbaa !4
  call void @kill_indent(ptr noundef %6, ptr noundef %55)
  %56 = load ptr, ptr %3, align 8, !tbaa !4
  %57 = getelementptr inbounds nuw %struct.json_writer, ptr %56, i32 0, i32 0
  call void @strbuf_addbuf(ptr noundef %57, ptr noundef %6)
  call void @strbuf_release(ptr noundef %6)
  call void @llvm.lifetime.end.p0(i64 24, ptr %6) #7
  br label %63

58:                                               ; preds = %46, %38
  %59 = load ptr, ptr %3, align 8, !tbaa !4
  %60 = getelementptr inbounds nuw %struct.json_writer, ptr %59, i32 0, i32 0
  %61 = load ptr, ptr %4, align 8, !tbaa !4
  %62 = getelementptr inbounds nuw %struct.json_writer, ptr %61, i32 0, i32 0
  call void @strbuf_addbuf(ptr noundef %60, ptr noundef %62)
  br label %63

63:                                               ; preds = %58, %54, %28
  ret void
}