; Function Attrs: nounwind uwtable
define internal fastcc void @append_sub_jw(ptr noundef %0, ptr noundef %1) unnamed_addr #3 {
  %3 = alloca %struct.strbuf, align 8
  %4 = alloca %struct.strbuf, align 8
  %5 = getelementptr inbounds nuw i8, ptr %0, i64 48
  %6 = load i8, ptr %5, align 8
  %7 = and i8 %6, 2
  %.not = icmp eq i8 %7, 0
  br i1 %.not, label %39, label %8

8:                                                ; preds = %2
  %9 = getelementptr inbounds nuw i8, ptr %0, i64 32
  %10 = load i64, ptr %9, align 8, !tbaa !14
  %.not12 = icmp eq i64 %10, 0
  br i1 %.not12, label %.thread, label %11

11:                                               ; preds = %8
  %12 = getelementptr inbounds nuw i8, ptr %1, i64 48
  %13 = load i8, ptr %12, align 8
  %14 = and i8 %13, 2
  %.not13 = icmp eq i8 %14, 0
  br i1 %.not13, label %.thread, label %strbuf_setlen.exit.i

strbuf_setlen.exit.i:                             ; preds = %11
  call void @llvm.lifetime.start.p0(i64 24, ptr nonnull %3) #8
  call void @llvm.memcpy.p0.p0.i64(ptr noundef nonnull align 8 dereferenceable(24) %3, ptr noundef nonnull align 8 dereferenceable(24) @__const.append_sub_jw.sb.19, i64 24, i1 false)
  %15 = getelementptr inbounds nuw i8, ptr %3, i64 8
  store i64 0, ptr %15, align 8, !tbaa !11
  %16 = getelementptr inbounds nuw i8, ptr %3, i64 16
  %17 = getelementptr inbounds nuw i8, ptr %1, i64 8
  %18 = load i64, ptr %17, align 8, !tbaa !21
  %.not.i = icmp eq i64 %18, 0
  br i1 %.not.i, label %increase_indent.exit, label %.lr.ph.i

.lr.ph.i:                                         ; preds = %strbuf_setlen.exit.i
  %.tr = trunc i64 %10 to i32
  %19 = shl i32 %.tr, 1
  %20 = getelementptr inbounds nuw i8, ptr %1, i64 16
  %21 = sext i32 %19 to i64
  br label %22

22:                                               ; preds = %36, %.lr.ph.i
  %indvars.iv.i = phi i64 [ 0, %.lr.ph.i ], [ %indvars.iv.next.i, %36 ]
  %23 = load ptr, ptr %20, align 8, !tbaa !20
  %24 = getelementptr inbounds nuw i8, ptr %23, i64 %indvars.iv.i
  %25 = load i8, ptr %24, align 1, !tbaa !13
  %26 = load i64, ptr %3, align 8, !tbaa !4
  %.not.i.i.i = icmp eq i64 %26, 0
  br i1 %.not.i.i.i, label %strbuf_avail.exit.thread.i.i, label %strbuf_avail.exit.i.i

strbuf_avail.exit.i.i:                            ; preds = %22
  %27 = load i64, ptr %15, align 8, !tbaa !11
  %.neg.i.i = add i64 %27, 1
  %.not.i.i = icmp eq i64 %26, %.neg.i.i
  br i1 %.not.i.i, label %strbuf_avail.exit.thread.i.i, label %strbuf_addch.exit.i

strbuf_avail.exit.thread.i.i:                     ; preds = %strbuf_avail.exit.i.i, %22
  call void @strbuf_grow(ptr noundef nonnull %3, i64 noundef 1) #8
  %.pre.i.i = load i64, ptr %15, align 8, !tbaa !11
  %.pre7.i.i = add i64 %.pre.i.i, 1
  br label %strbuf_addch.exit.i

strbuf_addch.exit.i:                              ; preds = %strbuf_avail.exit.thread.i.i, %strbuf_avail.exit.i.i
  %.pre-phi.i.i = phi i64 [ %.pre7.i.i, %strbuf_avail.exit.thread.i.i ], [ %.neg.i.i, %strbuf_avail.exit.i.i ]
  %28 = phi i64 [ %.pre.i.i, %strbuf_avail.exit.thread.i.i ], [ %27, %strbuf_avail.exit.i.i ]
  %29 = load ptr, ptr %16, align 8, !tbaa !12
  store i64 %.pre-phi.i.i, ptr %15, align 8, !tbaa !11
  %30 = getelementptr inbounds nuw i8, ptr %29, i64 %28
  store i8 %25, ptr %30, align 1, !tbaa !13
  %31 = load ptr, ptr %16, align 8, !tbaa !12
  %32 = load i64, ptr %15, align 8, !tbaa !11
  %33 = getelementptr inbounds nuw i8, ptr %31, i64 %32
  store i8 0, ptr %33, align 1, !tbaa !13
  %34 = icmp eq i8 %25, 10
  br i1 %34, label %35, label %36

35:                                               ; preds = %strbuf_addch.exit.i
  call void @strbuf_addchars(ptr noundef nonnull %3, i32 noundef 32, i64 noundef %21) #8
  br label %36

36:                                               ; preds = %35, %strbuf_addch.exit.i
  %indvars.iv.next.i = add nuw nsw i64 %indvars.iv.i, 1
  %37 = load i64, ptr %17, align 8, !tbaa !21
  %38 = icmp ugt i64 %37, %indvars.iv.next.i
  br i1 %38, label %22, label %increase_indent.exit, !llvm.loop !22

increase_indent.exit:                             ; preds = %36, %strbuf_setlen.exit.i
  call void @strbuf_addbuf(ptr noundef %0, ptr noundef nonnull %3) #8
  call void @strbuf_release(ptr noundef nonnull %3) #8
  call void @llvm.lifetime.end.p0(i64 24, ptr nonnull %3) #8
  br label %68

39:                                               ; preds = %2
  %40 = getelementptr inbounds nuw i8, ptr %1, i64 48
  %41 = load i8, ptr %40, align 8
  %42 = and i8 %41, 2
  %.not15 = icmp eq i8 %42, 0
  br i1 %.not15, label %.thread, label %strbuf_setlen.exit.i17

strbuf_setlen.exit.i17:                           ; preds = %39
  call void @llvm.lifetime.start.p0(i64 24, ptr nonnull %4) #8
  call void @llvm.memcpy.p0.p0.i64(ptr noundef nonnull align 8 dereferenceable(24) %4, ptr noundef nonnull align 8 dereferenceable(24) @__const.append_sub_jw.sb.19, i64 24, i1 false)
  %43 = getelementptr inbounds nuw i8, ptr %4, i64 8
  store i64 0, ptr %43, align 8, !tbaa !11
  %44 = getelementptr inbounds nuw i8, ptr %4, i64 16
  %45 = getelementptr inbounds nuw i8, ptr %1, i64 8
  %46 = load i64, ptr %45, align 8, !tbaa !21
  %.not.i18 = icmp eq i64 %46, 0
  br i1 %.not.i18, label %kill_indent.exit, label %.lr.ph.i19

.lr.ph.i19:                                       ; preds = %strbuf_setlen.exit.i17
  %47 = getelementptr inbounds nuw i8, ptr %1, i64 16
  br label %48

48:                                               ; preds = %65, %.lr.ph.i19
  %49 = phi i64 [ %46, %.lr.ph.i19 ], [ %66, %65 ]
  %indvars.iv.i20 = phi i64 [ 0, %.lr.ph.i19 ], [ %indvars.iv.next.i27, %65 ]
  %.01216.i = phi i32 [ 0, %.lr.ph.i19 ], [ %.1.i, %65 ]
  %50 = load ptr, ptr %47, align 8, !tbaa !20
  %51 = getelementptr inbounds nuw i8, ptr %50, i64 %indvars.iv.i20
  %52 = load i8, ptr %51, align 1, !tbaa !13
  %53 = icmp ne i32 %.01216.i, 0
  %54 = icmp eq i8 %52, 32
  %or.cond.i = select i1 %53, i1 %54, i1 false
  %55 = icmp eq i8 %52, 10
  %or.cond15.i = select i1 %or.cond.i, i1 true, i1 %55
  br i1 %or.cond15.i, label %65, label %56

56:                                               ; preds = %48
  %57 = load i64, ptr %4, align 8, !tbaa !4
  %.not.i.i.i21 = icmp eq i64 %57, 0
  br i1 %.not.i.i.i21, label %strbuf_avail.exit.thread.i.i28, label %strbuf_avail.exit.i.i22

strbuf_avail.exit.i.i22:                          ; preds = %56
  %58 = load i64, ptr %43, align 8, !tbaa !11
  %.neg.i.i23 = add i64 %58, 1
  %.not.i.i24 = icmp eq i64 %57, %.neg.i.i23
  br i1 %.not.i.i24, label %strbuf_avail.exit.thread.i.i28, label %strbuf_addch.exit.i25

strbuf_avail.exit.thread.i.i28:                   ; preds = %strbuf_avail.exit.i.i22, %56
  call void @strbuf_grow(ptr noundef nonnull %4, i64 noundef 1) #8
  %.pre.i.i29 = load i64, ptr %43, align 8, !tbaa !11
  %.pre7.i.i30 = add i64 %.pre.i.i29, 1
  br label %strbuf_addch.exit.i25

strbuf_addch.exit.i25:                            ; preds = %strbuf_avail.exit.thread.i.i28, %strbuf_avail.exit.i.i22
  %.pre-phi.i.i26 = phi i64 [ %.pre7.i.i30, %strbuf_avail.exit.thread.i.i28 ], [ %.neg.i.i23, %strbuf_avail.exit.i.i22 ]
  %59 = phi i64 [ %.pre.i.i29, %strbuf_avail.exit.thread.i.i28 ], [ %58, %strbuf_avail.exit.i.i22 ]
  %60 = load ptr, ptr %44, align 8, !tbaa !12
  store i64 %.pre-phi.i.i26, ptr %43, align 8, !tbaa !11
  %61 = getelementptr inbounds nuw i8, ptr %60, i64 %59
  store i8 %52, ptr %61, align 1, !tbaa !13
  %62 = load ptr, ptr %44, align 8, !tbaa !12
  %63 = load i64, ptr %43, align 8, !tbaa !11
  %64 = getelementptr inbounds nuw i8, ptr %62, i64 %63
  store i8 0, ptr %64, align 1, !tbaa !13
  %.pre.i = load i64, ptr %45, align 8, !tbaa !21
  br label %65

65:                                               ; preds = %strbuf_addch.exit.i25, %48
  %66 = phi i64 [ %.pre.i, %strbuf_addch.exit.i25 ], [ %49, %48 ]
  %.1.i = phi i32 [ 0, %strbuf_addch.exit.i25 ], [ 1, %48 ]
  %indvars.iv.next.i27 = add nuw nsw i64 %indvars.iv.i20, 1
  %67 = icmp ugt i64 %66, %indvars.iv.next.i27
  br i1 %67, label %48, label %kill_indent.exit, !llvm.loop !23

kill_indent.exit:                                 ; preds = %65, %strbuf_setlen.exit.i17
  call void @strbuf_addbuf(ptr noundef %0, ptr noundef nonnull %4) #8
  call void @strbuf_release(ptr noundef nonnull %4) #8
  call void @llvm.lifetime.end.p0(i64 24, ptr nonnull %4) #8
  br label %68

.thread:                                          ; preds = %8, %11, %39
  tail call void @strbuf_addbuf(ptr noundef nonnull %0, ptr noundef %1) #8
  br label %68

68:                                               ; preds = %.thread, %kill_indent.exit, %increase_indent.exit
  ret void
}